; Function Attrs: mustprogress nofree norecurse nosync nounwind willreturn memory(argmem: readwrite) uwtable
define internal nonnull ptr @Pack6WordsSwap(ptr nocapture readnone %0, ptr nocapture noundef readonly %1, ptr noundef writeonly %2, i32 %3) #3 {
  %5 = getelementptr inbounds i8, ptr %1, i64 10
  %6 = load i16, ptr %5, align 2
  store i16 %6, ptr %2, align 2
  %7 = getelementptr inbounds i8, ptr %2, i64 2
  %8 = getelementptr inbounds i8, ptr %1, i64 8
  %9 = load i16, ptr %8, align 2
  store i16 %9, ptr %7, align 2
  %10 = getelementptr inbounds i8, ptr %2, i64 4
  %11 = getelementptr inbounds i8, ptr %1, i64 6
  %12 = load i16, ptr %11, align 2
  store i16 %12, ptr %10, align 2
  %13 = getelementptr inbounds i8, ptr %2, i64 6
  %14 = getelementptr inbounds i8, ptr %1, i64 4
  %15 = load i16, ptr %14, align 2
  store i16 %15, ptr %13, align 2
  %16 = getelementptr inbounds i8, ptr %2, i64 8
  %17 = getelementptr inbounds i8, ptr %1, i64 2
  %18 = load i16, ptr %17, align 2
  store i16 %18, ptr %16, align 2
  %19 = getelementptr inbounds i8, ptr %2, i64 10
  %20 = load i16, ptr %1, align 2
  store i16 %20, ptr %19, align 2
  %21 = getelementptr inbounds i8, ptr %2, i64 12
  ret ptr %21
}